target datalayout = "e-m:e-p270:32:32-p271:32:32-p272:64:64-i64:64-i128:128-f80:128-n8:16:32:64-S128"
target triple = "x86_64-unknown-linux-gnu"

%"struct.msdfgen::Vector2" = type { double, double }
%"class.msdfgen::EdgeSegment.base" = type <{ ptr, i32 }>
%"class.msdfgen::EdgeSegment" = type <{ ptr, i32, [4 x i8] }>
%"class.msdfgen::QuadraticSegment" = type { %"class.msdfgen::EdgeSegment.base", [3 x %"struct.msdfgen::Vector2"] }

@_ZN7msdfgen12CubicSegmentC1ENS_7Vector2ES1_S1_S1_NS_9EdgeColorE = dso_local unnamed_addr alias void (ptr, double, double, double, double, double, double, double, double, i32), ptr @_ZN7msdfgen12CubicSegmentC2ENS_7Vector2ES1_S1_S1_NS_9EdgeColorE

; Function Attrs: mustprogress nounwind uwtable
define linkonce_odr dso_local void @_ZN7msdfgen7Vector2C2Edd(ptr noundef nonnull align 8 dereferenceable(16) %this, double noundef %x, double noundef %y) unnamed_addr #4 comdat align 2 {
entry:
  %this.addr = alloca ptr, align 8
  %x.addr = alloca double, align 8
  %y.addr = alloca double, align 8
  store ptr %this, ptr %this.addr, align 8
  store double %x, ptr %x.addr, align 8
  store double %y, ptr %y.addr, align 8
  %this1 = load ptr, ptr %this.addr, align 8
  %x2 = getelementptr inbounds %"struct.msdfgen::Vector2", ptr %this1, i32 0, i32 0
  %0 = load double, ptr %x.addr, align 8
  store double %0, ptr %x2, align 8
  %y3 = getelementptr inbounds %"struct.msdfgen::Vector2", ptr %this1, i32 0, i32 1
  %1 = load double, ptr %y.addr, align 8
  store double %1, ptr %y3, align 8
  ret void
}

; Function Attrs: mustprogress uwtable
define linkonce_odr dso_local { double, double } @_ZN7msdfgenplENS_7Vector2ES0_(double %a.coerce0, double %a.coerce1, double %b.coerce0, double %b.coerce1) #0 comdat {
entry:
  %retval = alloca %"struct.msdfgen::Vector2", align 8
  %a = alloca %"struct.msdfgen::Vector2", align 8
  %b = alloca %"struct.msdfgen::Vector2", align 8
  %0 = getelementptr inbounds { double, double }, ptr %a, i32 0, i32 0
  store double %a.coerce0, ptr %0, align 8
  %1 = getelementptr inbounds { double, double }, ptr %a, i32 0, i32 1
  store double %a.coerce1, ptr %1, align 8
  %2 = getelementptr inbounds { double, double }, ptr %b, i32 0, i32 0
  store double %b.coerce0, ptr %2, align 8
  %3 = getelementptr inbounds { double, double }, ptr %b, i32 0, i32 1
  store double %b.coerce1, ptr %3, align 8
  %x = getelementptr inbounds %"struct.msdfgen::Vector2", ptr %a, i32 0, i32 0
  %4 = load double, ptr %x, align 8
  %x1 = getelementptr inbounds %"struct.msdfgen::Vector2", ptr %b, i32 0, i32 0
  %5 = load double, ptr %x1, align 8
  %add = fadd double %4, %5
  %y = getelementptr inbounds %"struct.msdfgen::Vector2", ptr %a, i32 0, i32 1
  %6 = load double, ptr %y, align 8
  %y2 = getelementptr inbounds %"struct.msdfgen::Vector2", ptr %b, i32 0, i32 1
  %7 = load double, ptr %y2, align 8
  %add3 = fadd double %6, %7
  call void @_ZN7msdfgen7Vector2C2Edd(ptr noundef nonnull align 8 dereferenceable(16) %retval, double noundef %add, double noundef %add3)
  %8 = load { double, double }, ptr %retval, align 8
  ret { double, double } %8
}

; Function Attrs: mustprogress uwtable
define linkonce_odr dso_local { double, double } @_ZN7msdfgenmlEdNS_7Vector2E(double noundef %a, double %b.coerce0, double %b.coerce1) #0 comdat {
entry:
  %retval = alloca %"struct.msdfgen::Vector2", align 8
  %b = alloca %"struct.msdfgen::Vector2", align 8
  %a.addr = alloca double, align 8
  %0 = getelementptr inbounds { double, double }, ptr %b, i32 0, i32 0
  store double %b.coerce0, ptr %0, align 8
  %1 = getelementptr inbounds { double, double }, ptr %b, i32 0, i32 1
  store double %b.coerce1, ptr %1, align 8
  store double %a, ptr %a.addr, align 8
  %2 = load double, ptr %a.addr, align 8
  %x = getelementptr inbounds %"struct.msdfgen::Vector2", ptr %b, i32 0, i32 0
  %3 = load double, ptr %x, align 8
  %mul = fmul double %2, %3
  %4 = load double, ptr %a.addr, align 8
  %y = getelementptr inbounds %"struct.msdfgen::Vector2", ptr %b, i32 0, i32 1
  %5 = load double, ptr %y, align 8
  %mul1 = fmul double %4, %5
  call void @_ZN7msdfgen7Vector2C2Edd(ptr noundef nonnull align 8 dereferenceable(16) %retval, double noundef %mul, double noundef %mul1)
  %6 = load { double, double }, ptr %retval, align 8
  ret { double, double } %6
}

; Function Attrs: mustprogress uwtable
define linkonce_odr dso_local { double, double } @_ZN7msdfgen3mixINS_7Vector2EdEET_S2_S2_T0_(double %a.coerce0, double %a.coerce1, double %b.coerce0, double %b.coerce1, double noundef %weight) #0 comdat {
entry:
  %retval = alloca %"struct.msdfgen::Vector2", align 8
  %a = alloca %"struct.msdfgen::Vector2", align 8
  %b = alloca %"struct.msdfgen::Vector2", align 8
  %weight.addr = alloca double, align 8
  %agg.tmp = alloca %"struct.msdfgen::Vector2", align 8
  %agg.tmp1 = alloca %"struct.msdfgen::Vector2", align 8
  %agg.tmp2 = alloca %"struct.msdfgen::Vector2", align 8
  %agg.tmp3 = alloca %"struct.msdfgen::Vector2", align 8
  %0 = getelementptr inbounds { double, double }, ptr %a, i32 0, i32 0
  store double %a.coerce0, ptr %0, align 8
  %1 = getelementptr inbounds { double, double }, ptr %a, i32 0, i32 1
  store double %a.coerce1, ptr %1, align 8
  %2 = getelementptr inbounds { double, double }, ptr %b, i32 0, i32 0
  store double %b.coerce0, ptr %2, align 8
  %3 = getelementptr inbounds { double, double }, ptr %b, i32 0, i32 1
  store double %b.coerce1, ptr %3, align 8
  store double %weight, ptr %weight.addr, align 8
  %4 = load double, ptr %weight.addr, align 8
  %sub = fsub double 1.000000e+00, %4
  call void @llvm.memcpy.p0.p0.i64(ptr align 8 %agg.tmp1, ptr align 8 %a, i64 16, i1 false)
  %5 = getelementptr inbounds { double, double }, ptr %agg.tmp1, i32 0, i32 0
  %6 = load double, ptr %5, align 8
  %7 = getelementptr inbounds { double, double }, ptr %agg.tmp1, i32 0, i32 1
  %8 = load double, ptr %7, align 8
  %call = call { double, double } @_ZN7msdfgenmlEdNS_7Vector2E(double noundef %sub, double %6, double %8)
  %9 = getelementptr inbounds { double, double }, ptr %agg.tmp, i32 0, i32 0
  %10 = extractvalue { double, double } %call, 0
  store double %10, ptr %9, align 8
  %11 = getelementptr inbounds { double, double }, ptr %agg.tmp, i32 0, i32 1
  %12 = extractvalue { double, double } %call, 1
  store double %12, ptr %11, align 8
  %13 = load double, ptr %weight.addr, align 8
  call void @llvm.memcpy.p0.p0.i64(ptr align 8 %agg.tmp3, ptr align 8 %b, i64 16, i1 false)
  %14 = getelementptr inbounds { double, double }, ptr %agg.tmp3, i32 0, i32 0
  %15 = load double, ptr %14, align 8
  %16 = getelementptr inbounds { double, double }, ptr %agg.tmp3, i32 0, i32 1
  %17 = load double, ptr %16, align 8
  %call4 = call { double, double } @_ZN7msdfgenmlEdNS_7Vector2E(double noundef %13, double %15, double %17)
  %18 = getelementptr inbounds { double, double }, ptr %agg.tmp2, i32 0, i32 0
  %19 = extractvalue { double, double } %call4, 0
  store double %19, ptr %18, align 8
  %20 = getelementptr inbounds { double, double }, ptr %agg.tmp2, i32 0, i32 1
  %21 = extractvalue { double, double } %call4, 1
  store double %21, ptr %20, align 8
  %22 = getelementptr inbounds { double, double }, ptr %agg.tmp, i32 0, i32 0
  %23 = load double, ptr %22, align 8
  %24 = getelementptr inbounds { double, double }, ptr %agg.tmp, i32 0, i32 1
  %25 = load double, ptr %24, align 8
  %26 = getelementptr inbounds { double, double }, ptr %agg.tmp2, i32 0, i32 0
  %27 = load double, ptr %26, align 8
  %28 = getelementptr inbounds { double, double }, ptr %agg.tmp2, i32 0, i32 1
  %29 = load double, ptr %28, align 8
  %call5 = call { double, double } @_ZN7msdfgenplENS_7Vector2ES0_(double %23, double %25, double %27, double %29)
  %30 = getelementptr inbounds { double, double }, ptr %retval, i32 0, i32 0
  %31 = extractvalue { double, double } %call5, 0
  store double %31, ptr %30, align 8
  %32 = getelementptr inbounds { double, double }, ptr %retval, i32 0, i32 1
  %33 = extractvalue { double, double } %call5, 1
  store double %33, ptr %32, align 8
  %34 = load { double, double }, ptr %retval, align 8
  ret { double, double } %34
}

; Function Attrs: mustprogress uwtable
define dso_local noundef ptr @_ZNK7msdfgen16QuadraticSegment14convertToCubicEv(ptr noundef nonnull align 8 dereferenceable(64) %this) #0 align 2 personality ptr @__gxx_personality_v0 {
entry:
  %this.addr = alloca ptr, align 8
  %agg.tmp = alloca %"struct.msdfgen::Vector2", align 8
  %agg.tmp2 = alloca %"struct.msdfgen::Vector2", align 8
  %agg.tmp3 = alloca %"struct.msdfgen::Vector2", align 8
  %agg.tmp6 = alloca %"struct.msdfgen::Vector2", align 8
  %exn.slot = alloca ptr, align 8
  %ehselector.slot = alloca i32, align 4
  %agg.tmp10 = alloca %"struct.msdfgen::Vector2", align 8
  %agg.tmp11 = alloca %"struct.msdfgen::Vector2", align 8
  %agg.tmp14 = alloca %"struct.msdfgen::Vector2", align 8
  %agg.tmp19 = alloca %"struct.msdfgen::Vector2", align 8
  store ptr %this, ptr %this.addr, align 8
  %this1 = load ptr, ptr %this.addr, align 8
  %call = call noalias noundef nonnull ptr @_Znwm(i64 noundef 80) #9
  %p = getelementptr inbounds %"class.msdfgen::QuadraticSegment", ptr %this1, i32 0, i32 1
  %arrayidx = getelementptr inbounds [3 x %"struct.msdfgen::Vector2"], ptr %p, i64 0, i64 0
  call void @llvm.memcpy.p0.p0.i64(ptr align 8 %agg.tmp, ptr align 8 %arrayidx, i64 16, i1 false)
  %p4 = getelementptr inbounds %"class.msdfgen::QuadraticSegment", ptr %this1, i32 0, i32 1
  %arrayidx5 = getelementptr inbounds [3 x %"struct.msdfgen::Vector2"], ptr %p4, i64 0, i64 0
  call void @llvm.memcpy.p0.p0.i64(ptr align 8 %agg.tmp3, ptr align 8 %arrayidx5, i64 16, i1 false)
  %p7 = getelementptr inbounds %"class.msdfgen::QuadraticSegment", ptr %this1, i32 0, i32 1
  %arrayidx8 = getelementptr inbounds [3 x %"struct.msdfgen::Vector2"], ptr %p7, i64 0, i64 1
  call void @llvm.memcpy.p0.p0.i64(ptr align 8 %agg.tmp6, ptr align 8 %arrayidx8, i64 16, i1 false)
  %0 = getelementptr inbounds { double, double }, ptr %agg.tmp3, i32 0, i32 0
  %1 = load double, ptr %0, align 8
  %2 = getelementptr inbounds { double, double }, ptr %agg.tmp3, i32 0, i32 1
  %3 = load double, ptr %2, align 8
  %4 = getelementptr inbounds { double, double }, ptr %agg.tmp6, i32 0, i32 0
  %5 = load double, ptr %4, align 8
  %6 = getelementptr inbounds { double, double }, ptr %agg.tmp6, i32 0, i32 1
  %7 = load double, ptr %6, align 8
  %call9 = invoke { double, double } @_ZN7msdfgen3mixINS_7Vector2EdEET_S2_S2_T0_(double %1, double %3, double %5, double %7, double noundef 0x3FE5555555555555)
          to label %invoke.cont unwind label %lpad

invoke.cont:                                      ; preds = %entry
  %8 = getelementptr inbounds { double, double }, ptr %agg.tmp2, i32 0, i32 0
  %9 = extractvalue { double, double } %call9, 0
  store double %9, ptr %8, align 8
  %10 = getelementptr inbounds { double, double }, ptr %agg.tmp2, i32 0, i32 1
  %11 = extractvalue { double, double } %call9, 1
  store double %11, ptr %10, align 8
  %p12 = getelementptr inbounds %"class.msdfgen::QuadraticSegment", ptr %this1, i32 0, i32 1
  %arrayidx13 = getelementptr inbounds [3 x %"struct.msdfgen::Vector2"], ptr %p12, i64 0, i64 1
  call void @llvm.memcpy.p0.p0.i64(ptr align 8 %agg.tmp11, ptr align 8 %arrayidx13, i64 16, i1 false)
  %p15 = getelementptr inbounds %"class.msdfgen::QuadraticSegment", ptr %this1, i32 0, i32 1
  %arrayidx16 = getelementptr inbounds [3 x %"struct.msdfgen::Vector2"], ptr %p15, i64 0, i64 2
  call void @llvm.memcpy.p0.p0.i64(ptr align 8 %agg.tmp14, ptr align 8 %arrayidx16, i64 16, i1 false)
  %12 = getelementptr inbounds { double, double }, ptr %agg.tmp11, i32 0, i32 0
  %13 = load double, ptr %12, align 8
  %14 = getelementptr inbounds { double, double }, ptr %agg.tmp11, i32 0, i32 1
  %15 = load double, ptr %14, align 8
  %16 = getelementptr inbounds { double, double }, ptr %agg.tmp14, i32 0, i32 0
  %17 = load double, ptr %16, align 8
  %18 = getelementptr inbounds { double, double }, ptr %agg.tmp14, i32 0, i32 1
  %19 = load double, ptr %18, align 8
  %call18 = invoke { double, double } @_ZN7msdfgen3mixINS_7Vector2EdEET_S2_S2_T0_(double %13, double %15, double %17, double %19, double noundef 0x3FD5555555555555)
          to label %invoke.cont17 unwind label %lpad

invoke.cont17:                                    ; preds = %invoke.cont
  %20 = getelementptr inbounds { double, double }, ptr %agg.tmp10, i32 0, i32 0
  %21 = extractvalue { double, double } %call18, 0
  store double %21, ptr %20, align 8
  %22 = getelementptr inbounds { double, double }, ptr %agg.tmp10, i32 0, i32 1
  %23 = extractvalue { double, double } %call18, 1
  store double %23, ptr %22, align 8
  %p20 = getelementptr inbounds %"class.msdfgen::QuadraticSegment", ptr %this1, i32 0, i32 1
  %arrayidx21 = getelementptr inbounds [3 x %"struct.msdfgen::Vector2"], ptr %p20, i64 0, i64 2
  call void @llvm.memcpy.p0.p0.i64(ptr align 8 %agg.tmp19, ptr align 8 %arrayidx21, i64 16, i1 false)
  %color = getelementptr inbounds %"class.msdfgen::EdgeSegment", ptr %this1, i32 0, i32 1
  %24 = load i32, ptr %color, align 8
  %25 = getelementptr inbounds { double, double }, ptr %agg.tmp, i32 0, i32 0
  %26 = load double, ptr %25, align 8
  %27 = getelementptr inbounds { double, double }, ptr %agg.tmp, i32 0, i32 1
  %28 = load double, ptr %27, align 8
  %29 = getelementptr inbounds { double, double }, ptr %agg.tmp2, i32 0, i32 0
  %30 = load double, ptr %29, align 8
  %31 = getelementptr inbounds { double, double }, ptr %agg.tmp2, i32 0, i32 1
  %32 = load double, ptr %31, align 8
  %33 = getelementptr inbounds { double, double }, ptr %agg.tmp10, i32 0, i32 0
  %34 = load double, ptr %33, align 8
  %35 = getelementptr inbounds { double, double }, ptr %agg.tmp10, i32 0, i32 1
  %36 = load double, ptr %35, align 8
  %37 = getelementptr inbounds { double, double }, ptr %agg.tmp19, i32 0, i32 0
  %38 = load double, ptr %37, align 8
  %39 = getelementptr inbounds { double, double }, ptr %agg.tmp19, i32 0, i32 1
  %40 = load double, ptr %39, align 8
  invoke void @_ZN7msdfgen12CubicSegmentC1ENS_7Vector2ES1_S1_S1_NS_9EdgeColorE(ptr noundef nonnull align 8 dereferenceable(80) %call, double %26, double %28, double %30, double %32, double %34, double %36, double %38, double %40, i32 noundef %24)
          to label %invoke.cont22 unwind label %lpad

invoke.cont22:                                    ; preds = %invoke.cont17
  ret ptr %call

lpad:                                             ; preds = %invoke.cont17, %invoke.cont, %entry
  %41 = landingpad { ptr, i32 }
          cleanup
  %42 = extractvalue { ptr, i32 } %41, 0
  store ptr %42, ptr %exn.slot, align 8
  %43 = extractvalue { ptr, i32 } %41, 1
  store i32 %43, ptr %ehselector.slot, align 4
  call void @_ZdlPv(ptr noundef %call) #10
  br label %eh.resume

eh.resume:                                        ; preds = %lpad
  %exn = load ptr, ptr %exn.slot, align 8
  %sel = load i32, ptr %ehselector.slot, align 4
  %lpad.val = insertvalue { ptr, i32 } poison, ptr %exn, 0
  %lpad.val23 = insertvalue { ptr, i32 } %lpad.val, i32 %sel, 1
  resume { ptr, i32 } %lpad.val23
}