; Function Attrs: mustprogress uwtable
define dso_local noalias noundef nonnull ptr @_ZNK7msdfgen16QuadraticSegment14convertToCubicEv(ptr nocapture noundef nonnull readonly align 8 dereferenceable(64) %this) local_unnamed_addr #0 align 2 personality ptr @__gxx_personality_v0 {
invoke.cont22:
  %call = tail call noalias noundef nonnull dereferenceable(80) ptr @_Znwm(i64 noundef 80) #15
  %p = getelementptr inbounds i8, ptr %this, i64 16
  %arrayidx8 = getelementptr inbounds i8, ptr %this, i64 32
  %arrayidx16 = getelementptr inbounds i8, ptr %this, i64 48
  %color = getelementptr inbounds i8, ptr %this, i64 8
  %0 = load i32, ptr %color, align 8
  %color.i.i = getelementptr inbounds i8, ptr %call, i64 8
  store i32 %0, ptr %color.i.i, align 8
  store ptr getelementptr inbounds ({ [18 x ptr] }, ptr @_ZTVN7msdfgen12CubicSegmentE, i64 0, i32 0, i64 2), ptr %call, align 8
  %scevgep.i = getelementptr inbounds i8, ptr %call, i64 16
  %arrayidx6.i = getelementptr inbounds i8, ptr %call, i64 32
  %1 = load <2 x double>, ptr %p, align 8
  %2 = load <2 x double>, ptr %arrayidx8, align 8
  %3 = fmul <2 x double> %1, <double 0x3FD5555555555556, double 0x3FD5555555555556>
  %4 = fmul <2 x double> %2, <double 0x3FE5555555555555, double 0x3FE5555555555555>
  %5 = fadd <2 x double> %3, %4
  store <2 x double> %1, ptr %scevgep.i, align 8
  store <2 x double> %5, ptr %arrayidx6.i, align 8
  %arrayidx8.i = getelementptr inbounds i8, ptr %call, i64 48
  %6 = load <2 x double>, ptr %arrayidx16, align 8
  %7 = fmul <2 x double> %6, <double 0x3FD5555555555555, double 0x3FD5555555555555>
  %8 = fmul <2 x double> %2, <double 0x3FE5555555555556, double 0x3FE5555555555556>
  %9 = fadd <2 x double> %8, %7
  store <2 x double> %9, ptr %arrayidx8.i, align 8
  %arrayidx10.i = getelementptr inbounds i8, ptr %call, i64 64
  store <2 x double> %6, ptr %arrayidx10.i, align 8
  ret ptr %call
}